target datalayout = "e-m:e-p270:32:32-p271:32:32-p272:64:64-i64:64-i128:128-f80:128-n8:16:32:64-S128"
target triple = "x86_64-pc-linux-gnu"

%"class.std::_Function_base" = type { %"union.std::_Any_data", ptr }
%"union.std::_Any_data" = type { %"union.std::_Nocopy_types" }
%"union.std::_Nocopy_types" = type { { i64, i64 } }
%"class.std::optional.17" = type { %"struct.std::_Optional_base.18" }
%"struct.std::_Optional_base.18" = type { %"struct.std::_Optional_payload.20" }
%"struct.std::_Optional_payload.20" = type { %"struct.std::_Optional_payload.base.24", [7 x i8] }
%"struct.std::_Optional_payload.base.24" = type { %"struct.std::_Optional_payload_base.base.23" }
%"struct.std::_Optional_payload_base.base.23" = type <{ %"union.std::_Optional_payload_base<std::function<void (long, double)>>::_Storage", i8 }>
%"union.std::_Optional_payload_base<std::function<void (long, double)>>::_Storage" = type { %"class.std::function" }
%"class.std::function" = type { %"class.std::_Function_base", ptr }
%class.anon.290 = type { ptr }
%"struct.std::_Optional_payload_base.22" = type <{ %"union.std::_Optional_payload_base<std::function<void (long, double)>>::_Storage", i8, [7 x i8] }>

; Function Attrs: mustprogress nounwind uwtable
define linkonce_odr noundef ptr @_ZNSt9_Any_data9_M_accessEv(ptr noundef nonnull align 8 dereferenceable(16) %0) #1 comdat align 2 {
  %2 = alloca ptr, align 8
  store ptr %0, ptr %2, align 8
  %3 = load ptr, ptr %2, align 8
  %4 = getelementptr inbounds [16 x i8], ptr %3, i64 0, i64 0
  ret ptr %4
}

; Function Attrs: mustprogress nounwind uwtable
define internal void @"_ZNSt14_Function_base13_Base_managerIZN3gmx34VelocityScalingTemperatureCoupling22registerEnergyCallbackENS1_20EnergySignallerEventEE3$_0E9_M_createIS4_EEvRSt9_Any_dataOT_St17integral_constantIbLb1EE"(ptr noundef nonnull align 8 dereferenceable(16) %0, ptr noundef nonnull align 8 dereferenceable(8) %1) #1 align 2 {
  %3 = alloca ptr, align 8
  %4 = alloca ptr, align 8
  store ptr %0, ptr %3, align 8
  store ptr %1, ptr %4, align 8
  %5 = load ptr, ptr %3, align 8
  %6 = call noundef ptr @_ZNSt9_Any_data9_M_accessEv(ptr noundef nonnull align 8 dereferenceable(16) %5) #16
  %7 = load ptr, ptr %4, align 8
  call void @llvm.memcpy.p0.p0.i64(ptr align 8 %6, ptr align 8 %7, i64 8, i1 false)
  ret void
}

; Function Attrs: mustprogress nounwind uwtable
define internal void @"_ZNSt14_Function_base13_Base_managerIZN3gmx34VelocityScalingTemperatureCoupling22registerEnergyCallbackENS1_20EnergySignallerEventEE3$_0E15_M_init_functorIS4_EEvRSt9_Any_dataOT_"(ptr noundef nonnull align 8 dereferenceable(16) %0, ptr noundef nonnull align 8 dereferenceable(8) %1) #1 align 2 personality ptr @__gxx_personality_v0 {
  %3 = alloca ptr, align 8
  %4 = alloca ptr, align 8
  store ptr %0, ptr %3, align 8
  store ptr %1, ptr %4, align 8
  %5 = load ptr, ptr %3, align 8
  %6 = load ptr, ptr %4, align 8
  invoke void @"_ZNSt14_Function_base13_Base_managerIZN3gmx34VelocityScalingTemperatureCoupling22registerEnergyCallbackENS1_20EnergySignallerEventEE3$_0E9_M_createIS4_EEvRSt9_Any_dataOT_St17integral_constantIbLb1EE"(ptr noundef nonnull align 8 dereferenceable(16) %5, ptr noundef nonnull align 8 dereferenceable(8) %6)
          to label %7 unwind label %8

7:                                                ; preds = %2
  ret void

8:                                                ; preds = %2
  %9 = landingpad { ptr, i32 }
          catch ptr null
  %10 = extractvalue { ptr, i32 } %9, 0
  call void @__clang_call_terminate(ptr %10) #20
  unreachable
}

; Function Attrs: mustprogress nounwind uwtable
define internal noundef zeroext i1 @"_ZNSt14_Function_base13_Base_managerIZN3gmx34VelocityScalingTemperatureCoupling22registerEnergyCallbackENS1_20EnergySignallerEventEE3$_0E21_M_not_empty_functionIS4_EEbRKT_"(ptr noundef nonnull align 8 dereferenceable(8) %0) #1 align 2 {
  %2 = alloca ptr, align 8
  store ptr %0, ptr %2, align 8
  ret i1 true
}

; Function Attrs: mustprogress nounwind uwtable
define linkonce_odr void @_ZNSt14_Function_baseC2Ev(ptr noundef nonnull align 8 dereferenceable(24) %0) unnamed_addr #1 comdat align 2 {
  %2 = alloca ptr, align 8
  store ptr %0, ptr %2, align 8
  %3 = load ptr, ptr %2, align 8
  %4 = getelementptr inbounds %"class.std::_Function_base", ptr %3, i32 0, i32 0
  store ptr null, ptr %4, align 8
  %5 = getelementptr inbounds %"class.std::_Function_base", ptr %3, i32 0, i32 1
  store ptr null, ptr %5, align 8
  ret void
}

; Function Attrs: mustprogress nounwind uwtable
define internal void @"_ZNSt8functionIFvldEEC2IZN3gmx34VelocityScalingTemperatureCoupling22registerEnergyCallbackENS3_20EnergySignallerEventEE3$_0vEEOT_"(ptr noundef nonnull align 8 dereferenceable(32) %0, ptr noundef nonnull align 8 dereferenceable(8) %1) unnamed_addr #1 align 2 {
  %3 = alloca ptr, align 8
  %4 = alloca ptr, align 8
  store ptr %0, ptr %3, align 8
  store ptr %1, ptr %4, align 8
  %5 = load ptr, ptr %3, align 8
  %6 = getelementptr inbounds i8, ptr %5, i64 0
  call void @llvm.memset.p0.i64(ptr align 8 %6, i8 0, i64 24, i1 false)
  call void @_ZNSt14_Function_baseC2Ev(ptr noundef nonnull align 8 dereferenceable(24) %5) #16
  %7 = getelementptr inbounds %"class.std::function", ptr %5, i32 0, i32 1
  store ptr null, ptr %7, align 8
  %8 = load ptr, ptr %4, align 8
  %9 = call noundef zeroext i1 @"_ZNSt14_Function_base13_Base_managerIZN3gmx34VelocityScalingTemperatureCoupling22registerEnergyCallbackENS1_20EnergySignallerEventEE3$_0E21_M_not_empty_functionIS4_EEbRKT_"(ptr noundef nonnull align 8 dereferenceable(8) %8) #16
  br i1 %9, label %10, label %15

10:                                               ; preds = %2
  %11 = getelementptr inbounds %"class.std::_Function_base", ptr %5, i32 0, i32 0
  %12 = load ptr, ptr %4, align 8
  call void @"_ZNSt14_Function_base13_Base_managerIZN3gmx34VelocityScalingTemperatureCoupling22registerEnergyCallbackENS1_20EnergySignallerEventEE3$_0E15_M_init_functorIS4_EEvRSt9_Any_dataOT_"(ptr noundef nonnull align 8 dereferenceable(16) %11, ptr noundef nonnull align 8 dereferenceable(8) %12) #16
  %13 = getelementptr inbounds %"class.std::function", ptr %5, i32 0, i32 1
  store ptr @"_ZNSt17_Function_handlerIFvldEZN3gmx34VelocityScalingTemperatureCoupling22registerEnergyCallbackENS1_20EnergySignallerEventEE3$_0E9_M_invokeERKSt9_Any_dataOlOd", ptr %13, align 8
  %14 = getelementptr inbounds %"class.std::_Function_base", ptr %5, i32 0, i32 1
  store ptr @"_ZNSt17_Function_handlerIFvldEZN3gmx34VelocityScalingTemperatureCoupling22registerEnergyCallbackENS1_20EnergySignallerEventEE3$_0E10_M_managerERSt9_Any_dataRKS6_St18_Manager_operation", ptr %14, align 8
  br label %15

15:                                               ; preds = %10, %2
  ret void
}

; Function Attrs: mustprogress nounwind uwtable
define linkonce_odr void @_ZNSt22_Optional_payload_baseISt8functionIFvldEEE8_StorageIS2_Lb0EEC2Ev(ptr noundef nonnull align 8 dereferenceable(32) %0) unnamed_addr #1 comdat align 2 {
  %2 = alloca ptr, align 8
  store ptr %0, ptr %2, align 8
  ret void
}

; Function Attrs: mustprogress nounwind uwtable
define internal void @"_ZNSt22_Optional_payload_baseISt8functionIFvldEEE8_StorageIS2_Lb0EEC2IJZN3gmx34VelocityScalingTemperatureCoupling22registerEnergyCallbackENS7_20EnergySignallerEventEE3$_0EEESt10in_place_tDpOT_"(ptr noundef nonnull align 8 dereferenceable(32) %0, ptr noundef nonnull align 8 dereferenceable(8) %1) unnamed_addr #1 align 2 {
  %3 = alloca ptr, align 8
  %4 = alloca ptr, align 8
  store ptr %0, ptr %3, align 8
  store ptr %1, ptr %4, align 8
  %5 = load ptr, ptr %3, align 8
  %6 = load ptr, ptr %4, align 8
  call void @"_ZNSt8functionIFvldEEC2IZN3gmx34VelocityScalingTemperatureCoupling22registerEnergyCallbackENS3_20EnergySignallerEventEE3$_0vEEOT_"(ptr noundef nonnull align 8 dereferenceable(32) %5, ptr noundef nonnull align 8 dereferenceable(8) %6) #16
  ret void
}

; Function Attrs: mustprogress nounwind uwtable
define linkonce_odr void @_ZNSt22_Optional_payload_baseISt8functionIFvldEEEC2Ev(ptr noundef nonnull align 8 dereferenceable(33) %0) unnamed_addr #1 comdat align 2 {
  %2 = alloca ptr, align 8
  store ptr %0, ptr %2, align 8
  %3 = load ptr, ptr %2, align 8
  %4 = getelementptr inbounds %"struct.std::_Optional_payload_base.22", ptr %3, i32 0, i32 0
  call void @_ZNSt22_Optional_payload_baseISt8functionIFvldEEE8_StorageIS2_Lb0EEC2Ev(ptr noundef nonnull align 8 dereferenceable(32) %4) #16
  %5 = getelementptr inbounds %"struct.std::_Optional_payload_base.22", ptr %3, i32 0, i32 1
  store i8 0, ptr %5, align 8
  ret void
}

; Function Attrs: mustprogress uwtable
define internal void @"_ZNSt22_Optional_payload_baseISt8functionIFvldEEEC2IJZN3gmx34VelocityScalingTemperatureCoupling22registerEnergyCallbackENS5_20EnergySignallerEventEE3$_0EEESt10in_place_tDpOT_"(ptr noundef nonnull align 8 dereferenceable(33) %0, ptr noundef nonnull align 8 dereferenceable(8) %1) unnamed_addr #0 align 2 {
  %3 = alloca ptr, align 8
  %4 = alloca ptr, align 8
  store ptr %0, ptr %3, align 8
  store ptr %1, ptr %4, align 8
  %5 = load ptr, ptr %3, align 8
  %6 = getelementptr inbounds %"struct.std::_Optional_payload_base.22", ptr %5, i32 0, i32 0
  %7 = load ptr, ptr %4, align 8
  call void @"_ZNSt22_Optional_payload_baseISt8functionIFvldEEE8_StorageIS2_Lb0EEC2IJZN3gmx34VelocityScalingTemperatureCoupling22registerEnergyCallbackENS7_20EnergySignallerEventEE3$_0EEESt10in_place_tDpOT_"(ptr noundef nonnull align 8 dereferenceable(32) %6, ptr noundef nonnull align 8 dereferenceable(8) %7)
  %8 = getelementptr inbounds %"struct.std::_Optional_payload_base.22", ptr %5, i32 0, i32 1
  store i8 1, ptr %8, align 8
  ret void
}

; Function Attrs: mustprogress nounwind uwtable
define linkonce_odr void @_ZNSt17_Optional_payloadISt8functionIFvldEELb1ELb0ELb0EEC2Ev(ptr noundef nonnull align 8 dereferenceable(33) %0) unnamed_addr #1 comdat align 2 {
  %2 = alloca ptr, align 8
  store ptr %0, ptr %2, align 8
  %3 = load ptr, ptr %2, align 8
  call void @_ZNSt22_Optional_payload_baseISt8functionIFvldEEEC2Ev(ptr noundef nonnull align 8 dereferenceable(33) %3) #16
  ret void
}

; Function Attrs: mustprogress uwtable
define internal void @"_ZNSt17_Optional_payloadISt8functionIFvldEELb1ELb0ELb0EECI2St22_Optional_payload_baseIS2_EIJZN3gmx34VelocityScalingTemperatureCoupling22registerEnergyCallbackENS5_20EnergySignallerEventEE3$_0EEESt10in_place_tDpOT_"(ptr noundef nonnull align 8 dereferenceable(33) %0, ptr noundef nonnull align 8 dereferenceable(8) %1) unnamed_addr #0 align 2 {
  %3 = alloca ptr, align 8
  %4 = alloca ptr, align 8
  store ptr %0, ptr %3, align 8
  store ptr %1, ptr %4, align 8
  %5 = load ptr, ptr %3, align 8
  %6 = load ptr, ptr %4, align 8
  call void @"_ZNSt22_Optional_payload_baseISt8functionIFvldEEEC2IJZN3gmx34VelocityScalingTemperatureCoupling22registerEnergyCallbackENS5_20EnergySignallerEventEE3$_0EEESt10in_place_tDpOT_"(ptr noundef nonnull align 8 dereferenceable(33) %5, ptr noundef nonnull align 8 dereferenceable(8) %6)
  ret void
}

; Function Attrs: mustprogress nounwind uwtable
define linkonce_odr void @_ZNSt17_Optional_payloadISt8functionIFvldEELb0ELb0ELb0EEC2Ev(ptr noundef nonnull align 8 dereferenceable(33) %0) unnamed_addr #1 comdat align 2 {
  %2 = alloca ptr, align 8
  store ptr %0, ptr %2, align 8
  %3 = load ptr, ptr %2, align 8
  call void @_ZNSt17_Optional_payloadISt8functionIFvldEELb1ELb0ELb0EEC2Ev(ptr noundef nonnull align 8 dereferenceable(33) %3) #16
  ret void
}

; Function Attrs: mustprogress uwtable
define internal void @"_ZNSt17_Optional_payloadISt8functionIFvldEELb0ELb0ELb0EECI2St22_Optional_payload_baseIS2_EIJZN3gmx34VelocityScalingTemperatureCoupling22registerEnergyCallbackENS5_20EnergySignallerEventEE3$_0EEESt10in_place_tDpOT_"(ptr noundef nonnull align 8 dereferenceable(33) %0, ptr noundef nonnull align 8 dereferenceable(8) %1) unnamed_addr #0 align 2 {
  %3 = alloca ptr, align 8
  %4 = alloca ptr, align 8
  store ptr %0, ptr %3, align 8
  store ptr %1, ptr %4, align 8
  %5 = load ptr, ptr %3, align 8
  %6 = load ptr, ptr %4, align 8
  call void @"_ZNSt17_Optional_payloadISt8functionIFvldEELb1ELb0ELb0EECI2St22_Optional_payload_baseIS2_EIJZN3gmx34VelocityScalingTemperatureCoupling22registerEnergyCallbackENS5_20EnergySignallerEventEE3$_0EEESt10in_place_tDpOT_"(ptr noundef nonnull align 8 dereferenceable(33) %5, ptr noundef nonnull align 8 dereferenceable(8) %6)
  ret void
}

; Function Attrs: mustprogress nounwind uwtable
define linkonce_odr void @_ZNSt14_Optional_baseISt8functionIFvldEELb0ELb0EEC2Ev(ptr noundef nonnull align 8 dereferenceable(40) %0) unnamed_addr #1 comdat align 2 {
  %2 = alloca ptr, align 8
  store ptr %0, ptr %2, align 8
  %3 = load ptr, ptr %2, align 8
  %4 = getelementptr inbounds %"struct.std::_Optional_base.18", ptr %3, i32 0, i32 0
  call void @_ZNSt17_Optional_payloadISt8functionIFvldEELb0ELb0ELb0EEC2Ev(ptr noundef nonnull align 8 dereferenceable(33) %4) #16
  ret void
}

; Function Attrs: noreturn nounwind uwtable
define linkonce_odr hidden void @__clang_call_terminate(ptr noundef %0) #9 comdat {
  %2 = call ptr @__cxa_begin_catch(ptr %0) #16
  call void @_ZSt9terminatev() #20
  unreachable
}

; Function Attrs: mustprogress uwtable
define internal void @"_ZNSt14_Optional_baseISt8functionIFvldEELb0ELb0EEC2IJZN3gmx34VelocityScalingTemperatureCoupling22registerEnergyCallbackENS5_20EnergySignallerEventEE3$_0ETnNSt9enable_ifIX18is_constructible_vIS2_DpT_EEbE4typeELb0EEESt10in_place_tDpOSA_"(ptr noundef nonnull align 8 dereferenceable(40) %0, ptr noundef nonnull align 8 dereferenceable(8) %1) unnamed_addr #0 align 2 {
  %3 = alloca ptr, align 8
  %4 = alloca ptr, align 8
  store ptr %0, ptr %3, align 8
  store ptr %1, ptr %4, align 8
  %5 = load ptr, ptr %3, align 8
  %6 = getelementptr inbounds %"struct.std::_Optional_base.18", ptr %5, i32 0, i32 0
  %7 = load ptr, ptr %4, align 8
  call void @"_ZNSt17_Optional_payloadISt8functionIFvldEELb0ELb0ELb0EECI2St22_Optional_payload_baseIS2_EIJZN3gmx34VelocityScalingTemperatureCoupling22registerEnergyCallbackENS5_20EnergySignallerEventEE3$_0EEESt10in_place_tDpOT_"(ptr noundef nonnull align 8 dereferenceable(33) %6, ptr noundef nonnull align 8 dereferenceable(8) %7)
  ret void
}

; Function Attrs: mustprogress nounwind uwtable
define linkonce_odr void @_ZNSt8optionalISt8functionIFvldEEEC2ESt9nullopt_t(ptr noundef nonnull align 8 dereferenceable(40) %0) unnamed_addr #1 comdat align 2 {
  %2 = alloca ptr, align 8
  store ptr %0, ptr %2, align 8
  %3 = load ptr, ptr %2, align 8
  call void @_ZNSt14_Optional_baseISt8functionIFvldEELb0ELb0EEC2Ev(ptr noundef nonnull align 8 dereferenceable(40) %3) #16
  ret void
}

; Function Attrs: mustprogress nounwind uwtable
define internal void @"_ZNSt8optionalISt8functionIFvldEEEC2IZN3gmx34VelocityScalingTemperatureCoupling22registerEnergyCallbackENS5_20EnergySignallerEventEE3$_0TnNSt9enable_ifIX7__and_vISt6__not_ISt7is_sameIS3_NSt9remove_cvINSt16remove_referenceIT_E4typeEE4typeEEESA_ISB_ISt10in_place_tSI_EESt16is_constructibleIS2_JSE_EESt14is_convertibleISE_S2_EEEbE4typeELb1EEEOSE_"(ptr noundef nonnull align 8 dereferenceable(40) %0, ptr noundef nonnull align 8 dereferenceable(8) %1) unnamed_addr #1 align 2 personality ptr @__gxx_personality_v0 {
  %3 = alloca ptr, align 8
  %4 = alloca ptr, align 8
  store ptr %0, ptr %3, align 8
  store ptr %1, ptr %4, align 8
  %5 = load ptr, ptr %3, align 8
  %6 = load ptr, ptr %4, align 8
  invoke void @"_ZNSt14_Optional_baseISt8functionIFvldEELb0ELb0EEC2IJZN3gmx34VelocityScalingTemperatureCoupling22registerEnergyCallbackENS5_20EnergySignallerEventEE3$_0ETnNSt9enable_ifIX18is_constructible_vIS2_DpT_EEbE4typeELb0EEESt10in_place_tDpOSA_"(ptr noundef nonnull align 8 dereferenceable(40) %5, ptr noundef nonnull align 8 dereferenceable(8) %6)
          to label %7 unwind label %8

7:                                                ; preds = %2
  ret void

8:                                                ; preds = %2
  %9 = landingpad { ptr, i32 }
          catch ptr null
  %10 = extractvalue { ptr, i32 } %9, 0
  call void @__clang_call_terminate(ptr %10) #20
  unreachable
}

; Function Attrs: mustprogress nounwind uwtable
define void @_ZN3gmx34VelocityScalingTemperatureCoupling22registerEnergyCallbackENS_20EnergySignallerEventE(ptr dead_on_unwind noalias writable sret(%"class.std::optional.17") align 8 %0, ptr noundef nonnull align 8 dereferenceable(256) %1, i32 noundef %2) unnamed_addr #1 align 2 {
  %4 = alloca ptr, align 8
  %5 = alloca ptr, align 8
  %6 = alloca i32, align 4
  %7 = alloca %class.anon.290, align 8
  store ptr %0, ptr %4, align 8
  store ptr %1, ptr %5, align 8
  store i32 %2, ptr %6, align 4
  %8 = load ptr, ptr %5, align 8
  %9 = load i32, ptr %6, align 4
  %10 = icmp eq i32 %9, 0
  br i1 %10, label %11, label %13

11:                                               ; preds = %3
  %12 = getelementptr inbounds %class.anon.290, ptr %7, i32 0, i32 0
  store ptr %8, ptr %12, align 8
  call void @"_ZNSt8optionalISt8functionIFvldEEEC2IZN3gmx34VelocityScalingTemperatureCoupling22registerEnergyCallbackENS5_20EnergySignallerEventEE3$_0TnNSt9enable_ifIX7__and_vISt6__not_ISt7is_sameIS3_NSt9remove_cvINSt16remove_referenceIT_E4typeEE4typeEEESA_ISB_ISt10in_place_tSI_EESt16is_constructibleIS2_JSE_EESt14is_convertibleISE_S2_EEEbE4typeELb1EEEOSE_"(ptr noundef nonnull align 8 dereferenceable(40) %0, ptr noundef nonnull align 8 dereferenceable(8) %7) #16
  br label %14

13:                                               ; preds = %3
  call void @_ZNSt8optionalISt8functionIFvldEEEC2ESt9nullopt_t(ptr noundef nonnull align 8 dereferenceable(40) %0) #16
  br label %14

14:                                               ; preds = %13, %11
  ret void
}

; Function Attrs: uwtable
define void @_ZThn16_N3gmx34VelocityScalingTemperatureCoupling22registerEnergyCallbackENS_20EnergySignallerEventE(ptr dead_on_unwind noalias writable sret(%"class.std::optional.17") align 8 %0, ptr noundef %1, i32 noundef %2) unnamed_addr #3 align 2 {
  %4 = alloca ptr, align 8
  %5 = alloca ptr, align 8
  %6 = alloca i32, align 4
  store ptr %0, ptr %4, align 8
  store ptr %1, ptr %5, align 8
  store i32 %2, ptr %6, align 4
  %7 = load ptr, ptr %5, align 8
  %8 = getelementptr inbounds i8, ptr %7, i64 -16
  %9 = load i32, ptr %6, align 4
  tail call void @_ZN3gmx34VelocityScalingTemperatureCoupling22registerEnergyCallbackENS_20EnergySignallerEventE(ptr dead_on_unwind writable sret(%"class.std::optional.17") align 8 %0, ptr noundef nonnull align 8 dereferenceable(256) %8, i32 noundef %9)
  ret void
}